(dp0
V%
p1
F-0.7763386210299927
sV&
p2
F-2.4258662964959967
sV)
p3
F3.1051237058760037
sV(
p4
F5.045819654124003
sV+
p5
F0.582210240000002
sV,
p6
F2.716978694124009
sV/
p7
F2.7170078046360118
sV.
p8
F2.911051200000003
sV1
p9
F3.299174378867974
sV0
p10
F3.2991889341239897
sV3
p11
F2.1347419894850077
sV2
p12
F3.299174378867974
sV5
p13
F2.7169495836120063
sV4
p14
F3.1051455387599844
sV7
p15
F3.299174378867974
sV6
p16
F1.5525830710019477
sV9
p17
F2.0377358750000027
sV8
p18
F2.0377312173180044
sV;
p19
F3.784370716696003
sV:
p20
F2.619924247115989
sV?
p21
F3.2991889341239755
sVA
p22
F1.4555037671159994
sVC
p23
F2.6199388023719905
sVB
p24
F3.0080865500000016
sVE
p25
F2.134783009379987
sVD
p26
F0.8733371928839802
sVG
p27
F2.619936646495006
sVF
p28
F2.8140040306199694
sVI
p29
F3.008096253505016
sVH
p30
F1.4555257499999925
sVK
p31
F2.3288409599999937
sVJ
p32
F1.9407032258760069
sVM
p33
F1.0673564394850246
sVL
p34
F3.0080910917519645
sVO
p35
F1.0673855500000116
sVN
p36
F1.649615257009998
sVQ
p37
F2.2318083458760043
sVP
p38
F2.3288411999999994
sVS
p39
F3.0080910917519645
sVR
p40
F2.3288409599999795
sVU
p41
F-2.1347710999999947
sVT
p42
F2.5228918929900033
sVW
p43
F1.4555257500000067
sVV
p44
F2.522891632992014
sVY
p45
F0.9703843622639852
sVX
p46
F3.202137242990034
sV[
p47
F3.5903055637829766
sVZ
p48
F2.1347613964950085
sV]
p49
F-3.6873266682479944
sV_
p50
F3.2021781528839597
sVa
p51
F3.881399174123999
sVc
p52
F3.8814282846360015
sVb
p53
F3.5902867764959865
sS'e'
p54
F3.4932614399999977
sVd
p55
F2.134771100000002
sVg
p56
F2.1347710999999947
sVf
p57
F3.9784390658760174
sS'i'
p58
F3.590287522846978
sVh
p59
F3.396228825875994
sVk
p60
F3.3961997153639913
sVj
p61
F4.463645802264011
sVm
p62
F2.23180834587599
sVl
p63
F4.172526127007984
sS'o'
p64
F2.4258954070079994
sVn
p65
F3.2021708752560016
sVq
p66
F3.299188934124004
sVp
p67
F3.4932614399999693
sS's'
p68
F1.9407396140161381
sVr
p69
F3.9784245106199876
sVu
p70
F3.590294054123987
sVt
p71
F4.075478957627979
sVw
p72
F2.7169495836120063
sVv
p73
F3.6873339458759986
sVy
p74
F2.0378136780401093
sVx
p75
F3.3961997153639913
sVz
p76
F4.463608283303984
s.